target datalayout = "e-m:e-p270:32:32-p271:32:32-p272:64:64-i64:64-i128:128-f80:128-n8:16:32:64-S128"
target triple = "x86_64-pc-linux-gnu"

%"class.icu_77::UObject" = type { ptr }
%"class.icu_77::UnicodeString" = type { %"class.icu_77::Replaceable", %"union.icu_77::UnicodeString::StackBufferOrFields" }
%"class.icu_77::Replaceable" = type { %"class.icu_77::UObject" }
%"union.icu_77::UnicodeString::StackBufferOrFields" = type { %struct.anon.0, [32 x i8] }
%struct.anon.0 = type { i16, i32, i32, ptr }
%"class.icu_77::Hashtable" = type { ptr, %struct.UHashtable }
%struct.UHashtable = type { ptr, ptr, ptr, ptr, ptr, ptr, i32, i32, i32, i32, float, float, i8, i8 }
%"class.icu_77::ICUService" = type { %"class.icu_77::ICUNotifier", %"class.icu_77::UnicodeString", i32, ptr, ptr, ptr, ptr }
%"class.icu_77::ICUNotifier" = type { ptr, ptr }
%"class.icu_77::DNCache" = type { [8 x i8], %"class.icu_77::Hashtable", %"class.icu_77::Locale" }
%"class.icu_77::Locale" = type <{ %"class.icu_77::UObject", [12 x i8], [6 x i8], [4 x i8], [2 x i8], i32, [4 x i8], ptr, [157 x i8], [3 x i8], ptr, i8, [7 x i8] }>

; Function Attrs: inlinehint mustprogress nounwind uwtable
define linkonce_odr void @_ZN6icu_779HashtableD2Ev(ptr noundef nonnull align 8 dereferenceable(88) %0) unnamed_addr #1 comdat align 2 personality ptr @__gxx_personality_v0 {
  %2 = alloca ptr, align 8
  store ptr %0, ptr %2, align 8, !tbaa !35
  %3 = load ptr, ptr %2, align 8
  %4 = getelementptr inbounds nuw %"class.icu_77::Hashtable", ptr %3, i32 0, i32 0
  %5 = load ptr, ptr %4, align 8, !tbaa !37
  %6 = icmp ne ptr %5, null
  br i1 %6, label %7, label %11

7:                                                ; preds = %1
  %8 = getelementptr inbounds nuw %"class.icu_77::Hashtable", ptr %3, i32 0, i32 0
  %9 = load ptr, ptr %8, align 8, !tbaa !37
  invoke void @uhash_close_77(ptr noundef %9)
          to label %10 unwind label %12

10:                                               ; preds = %7
  br label %11

11:                                               ; preds = %10, %1
  ret void

12:                                               ; preds = %7
  %13 = landingpad { ptr, i32 }
          catch ptr null
  %14 = extractvalue { ptr, i32 } %13, 0
  call void @__clang_call_terminate(ptr %14) #11
  unreachable
}

; Function Attrs: inlinehint mustprogress nounwind uwtable
define linkonce_odr void @_ZN6icu_777DNCacheD2Ev(ptr noundef nonnull align 8 dereferenceable(320) %0) unnamed_addr #1 comdat align 2 {
  %2 = alloca ptr, align 8
  store ptr %0, ptr %2, align 8, !tbaa !109
  %3 = load ptr, ptr %2, align 8
  %4 = getelementptr inbounds nuw %"class.icu_77::DNCache", ptr %3, i32 0, i32 2
  call void @_ZN6icu_776LocaleD1Ev(ptr noundef nonnull align 8 dereferenceable(217) %4) #10
  %5 = getelementptr inbounds nuw %"class.icu_77::DNCache", ptr %3, i32 0, i32 1
  call void @_ZN6icu_779HashtableD2Ev(ptr noundef nonnull align 8 dereferenceable(88) %5) #10
  ret void
}

; Function Attrs: mustprogress nounwind uwtable
define void @_ZN6icu_7710ICUService11clearCachesEv(ptr noundef nonnull align 8 dereferenceable(120) %0) unnamed_addr #4 align 2 {
  %2 = alloca ptr, align 8
  store ptr %0, ptr %2, align 8, !tbaa !30
  %3 = load ptr, ptr %2, align 8
  %4 = getelementptr inbounds nuw %"class.icu_77::ICUService", ptr %3, i32 0, i32 2
  %5 = load i32, ptr %4, align 8, !tbaa !49
  %6 = add i32 %5, 1
  store i32 %6, ptr %4, align 8, !tbaa !49
  %7 = getelementptr inbounds nuw %"class.icu_77::ICUService", ptr %3, i32 0, i32 6
  %8 = load ptr, ptr %7, align 8, !tbaa !57
  %9 = icmp eq ptr %8, null
  br i1 %9, label %11, label %10

10:                                               ; preds = %1
  call void @_ZN6icu_777DNCacheD2Ev(ptr noundef nonnull align 8 dereferenceable(320) %8) #10
  call void @_ZN6icu_777UMemorydlEPv(ptr noundef %8) #10
  br label %11

11:                                               ; preds = %10, %1
  %12 = getelementptr inbounds nuw %"class.icu_77::ICUService", ptr %3, i32 0, i32 6
  store ptr null, ptr %12, align 8, !tbaa !57
  %13 = getelementptr inbounds nuw %"class.icu_77::ICUService", ptr %3, i32 0, i32 5
  %14 = load ptr, ptr %13, align 8, !tbaa !56
  %15 = icmp eq ptr %14, null
  br i1 %15, label %17, label %16

16:                                               ; preds = %11
  call void @_ZN6icu_779HashtableD2Ev(ptr noundef nonnull align 8 dereferenceable(88) %14) #10
  call void @_ZN6icu_777UMemorydlEPv(ptr noundef %14) #10
  br label %17

17:                                               ; preds = %16, %11
  %18 = getelementptr inbounds nuw %"class.icu_77::ICUService", ptr %3, i32 0, i32 5
  store ptr null, ptr %18, align 8, !tbaa !56
  %19 = getelementptr inbounds nuw %"class.icu_77::ICUService", ptr %3, i32 0, i32 4
  %20 = load ptr, ptr %19, align 8, !tbaa !55
  %21 = icmp eq ptr %20, null
  br i1 %21, label %23, label %22

22:                                               ; preds = %17
  call void @_ZN6icu_779HashtableD2Ev(ptr noundef nonnull align 8 dereferenceable(88) %20) #10
  call void @_ZN6icu_777UMemorydlEPv(ptr noundef %20) #10
  br label %23

23:                                               ; preds = %22, %17
  %24 = getelementptr inbounds nuw %"class.icu_77::ICUService", ptr %3, i32 0, i32 4
  store ptr null, ptr %24, align 8, !tbaa !55
  ret void
}