; Function Attrs: mustprogress nounwind uwtable
define void @_ZN6icu_7710ICUService11clearCachesEv(ptr noundef nonnull align 8 captures(none) dereferenceable(120) %0) unnamed_addr #3 align 2 personality ptr @__gxx_personality_v0 {
  %2 = getelementptr inbounds nuw i8, ptr %0, i64 80
  %3 = load i32, ptr %2, align 8, !tbaa !28
  %4 = add i32 %3, 1
  store i32 %4, ptr %2, align 8, !tbaa !28
  %5 = getelementptr inbounds nuw i8, ptr %0, i64 112
  %6 = load ptr, ptr %5, align 8, !tbaa !55
  %7 = icmp eq ptr %6, null
  br i1 %7, label %16, label %8

8:                                                ; preds = %1
  %9 = getelementptr inbounds nuw i8, ptr %6, i64 96
  tail call void @_ZN6icu_776LocaleD1Ev(ptr noundef nonnull align 8 dereferenceable(217) %9) #17
  %10 = getelementptr inbounds nuw i8, ptr %6, i64 8
  %11 = load ptr, ptr %10, align 8, !tbaa !21
  %.not.i.i = icmp eq ptr %11, null
  br i1 %.not.i.i, label %_ZN6icu_777DNCacheD2Ev.exit, label %12

12:                                               ; preds = %8
  invoke void @uhash_close_77(ptr noundef nonnull %11)
          to label %_ZN6icu_777DNCacheD2Ev.exit unwind label %13

13:                                               ; preds = %12
  %14 = landingpad { ptr, i32 }
          catch ptr null
  %15 = extractvalue { ptr, i32 } %14, 0
  tail call void @__clang_call_terminate(ptr %15) #18
  unreachable

_ZN6icu_777DNCacheD2Ev.exit:                      ; preds = %8, %12
  tail call void @_ZN6icu_777UMemorydlEPv(ptr noundef nonnull %6) #17
  br label %16

16:                                               ; preds = %_ZN6icu_777DNCacheD2Ev.exit, %1
  store ptr null, ptr %5, align 8, !tbaa !55
  %17 = getelementptr inbounds nuw i8, ptr %0, i64 104
  %18 = load ptr, ptr %17, align 8, !tbaa !53
  %19 = icmp eq ptr %18, null
  br i1 %19, label %26, label %20

20:                                               ; preds = %16
  %21 = load ptr, ptr %18, align 8, !tbaa !21
  %.not.i = icmp eq ptr %21, null
  br i1 %.not.i, label %_ZN6icu_779HashtableD2Ev.exit, label %22

22:                                               ; preds = %20
  invoke void @uhash_close_77(ptr noundef nonnull %21)
          to label %_ZN6icu_779HashtableD2Ev.exit unwind label %23

23:                                               ; preds = %22
  %24 = landingpad { ptr, i32 }
          catch ptr null
  %25 = extractvalue { ptr, i32 } %24, 0
  tail call void @__clang_call_terminate(ptr %25) #18
  unreachable

_ZN6icu_779HashtableD2Ev.exit:                    ; preds = %20, %22
  tail call void @_ZN6icu_777UMemorydlEPv(ptr noundef nonnull %18) #17
  br label %26

26:                                               ; preds = %_ZN6icu_779HashtableD2Ev.exit, %16
  store ptr null, ptr %17, align 8, !tbaa !53
  %27 = getelementptr inbounds nuw i8, ptr %0, i64 96
  %28 = load ptr, ptr %27, align 8, !tbaa !39
  %29 = icmp eq ptr %28, null
  br i1 %29, label %36, label %30

30:                                               ; preds = %26
  %31 = load ptr, ptr %28, align 8, !tbaa !21
  %.not.i3 = icmp eq ptr %31, null
  br i1 %.not.i3, label %_ZN6icu_779HashtableD2Ev.exit4, label %32

32:                                               ; preds = %30
  invoke void @uhash_close_77(ptr noundef nonnull %31)
          to label %_ZN6icu_779HashtableD2Ev.exit4 unwind label %33

33:                                               ; preds = %32
  %34 = landingpad { ptr, i32 }
          catch ptr null
  %35 = extractvalue { ptr, i32 } %34, 0
  tail call void @__clang_call_terminate(ptr %35) #18
  unreachable

_ZN6icu_779HashtableD2Ev.exit4:                   ; preds = %30, %32
  tail call void @_ZN6icu_777UMemorydlEPv(ptr noundef nonnull %28) #17
  br label %36

36:                                               ; preds = %_ZN6icu_779HashtableD2Ev.exit4, %26
  store ptr null, ptr %27, align 8, !tbaa !39
  ret void
}